target datalayout = "e-m:e-p270:32:32-p271:32:32-p272:64:64-i64:64-i128:128-f80:128-n8:16:32:64-S128"
target triple = "x86_64-pc-linux-gnu"

%struct.darktable_t = type { %struct.dt_codepath_t, i32, i32, ptr, ptr, ptr, ptr, ptr, ptr, ptr, ptr, ptr, ptr, ptr, ptr, ptr, ptr, ptr, ptr, ptr, ptr, ptr, ptr, ptr, ptr, ptr, ptr, ptr, ptr, ptr, [64 x %struct.dt_pthread_mutex_t], %struct.dt_pthread_mutex_t, %struct.dt_pthread_mutex_t, %struct.dt_pthread_mutex_t, %struct.dt_pthread_mutex_t, %struct.dt_pthread_mutex_t, ptr, ptr, ptr, ptr, ptr, ptr, ptr, ptr, ptr, ptr, ptr, ptr, ptr, %struct.dt_lua_state_t, ptr, double, ptr, i32, [47 x i32], i32, i32, ptr, ptr, %struct.dt_sys_resources_t, %struct.dt_backthumb_t, %struct.dt_gimp_t }
%struct.dt_codepath_t = type { i8, [3 x i8] }
%struct.dt_pthread_mutex_t = type { %union.pthread_mutex_t }
%union.pthread_mutex_t = type { %struct.__pthread_mutex_s }
%struct.__pthread_mutex_s = type { i32, i32, i32, i32, i32, i16, i16, %struct.__pthread_internal_list }
%struct.__pthread_internal_list = type { ptr, ptr }
%struct.dt_lua_state_t = type { i32 }
%struct.dt_sys_resources_t = type { i64, i64, ptr, ptr, i32 }
%struct.dt_backthumb_t = type { double, double, i32, i32, i32, i32 }
%struct.dt_gimp_t = type { i32, ptr, ptr, i32, i32 }
%struct._GdkRGBA = type { double, double, double, double }
%struct._DtBauhausWidget = type { %struct._GtkDrawingArea, i32, ptr, ptr, i32, [256 x i8], i32, ptr, i32, ptr, ptr, i32, ptr, i32, i32, i32, %struct._GtkBorder, %struct._GtkBorder, i32, %union.dt_bauhaus_data_t }
%struct._GtkDrawingArea = type { %struct._GtkWidget, ptr }
%struct._GtkWidget = type { %struct._GObject, ptr }
%struct._GObject = type { %struct._GTypeInstance, i32, ptr }
%struct._GTypeInstance = type { ptr }
%struct._GtkBorder = type { i16, i16, i16, i16 }
%union.dt_bauhaus_data_t = type { %struct.dt_bauhaus_slider_data_t }
%struct.dt_bauhaus_slider_data_t = type { float, float, float, float, float, float, float, float, float, float, i32, ptr, i32, ptr, i8, ptr, float, float, i8, i32, ptr }
%struct.dt_bauhaus_t = type { ptr, %struct.dt_bauhaus_popup_t, ptr, float, float, i32, i32, float, [180 x i8], i32, i32, [2 x i32], i32, ptr, ptr, float, float, float, float, float, ptr, ptr, i32, i32, i32, %struct._GdkRGBA, %struct._GdkRGBA, %struct._GdkRGBA, %struct._GdkRGBA, %struct._GdkRGBA, %struct._GdkRGBA, %struct._GdkRGBA, %struct._GdkRGBA, %struct._GdkRGBA, %struct._GdkRGBA, %struct._GdkRGBA, %struct._GdkRGBA, %struct._GdkRGBA, %struct._GdkRGBA, %struct._GdkRGBA, [3 x %struct._GdkRGBA], [5 x %struct._GdkRGBA] }
%struct.dt_bauhaus_popup_t = type { ptr, ptr, %struct._GtkBorder, %struct._cairo_rectangle_int, i32, i32, i32 }
%struct._cairo_rectangle_int = type { i32, i32, i32, i32 }

@darktable = external global %struct.darktable_t, align 8

; Function Attrs: nounwind uwtable
define internal float @_widget_get_quad_width(ptr noundef %0) #0 {
  %2 = alloca float, align 4
  %3 = alloca ptr, align 8
  store ptr %0, ptr %3, align 8, !tbaa !17
  %4 = load ptr, ptr %3, align 8, !tbaa !17
  %5 = getelementptr inbounds nuw %struct._DtBauhausWidget, ptr %4, i32 0, i32 14
  %6 = load i32, ptr %5, align 4, !tbaa !262
  %7 = icmp ne i32 %6, 0
  br i1 %7, label %8, label %15

8:                                                ; preds = %1
  %9 = load ptr, ptr getelementptr inbounds nuw (%struct.darktable_t, ptr @darktable, i32 0, i32 17), align 8, !tbaa !78
  %10 = getelementptr inbounds nuw %struct.dt_bauhaus_t, ptr %9, i32 0, i32 19
  %11 = load float, ptr %10, align 8, !tbaa !97
  %12 = fpext reassoc nsz arcp contract afn float %11 to double
  %13 = fadd reassoc nsz arcp contract afn double %12, 4.000000e+00
  %14 = fptrunc reassoc nsz arcp contract afn double %13 to float
  store float %14, ptr %2, align 4
  br label %16

15:                                               ; preds = %1
  store float 0.000000e+00, ptr %2, align 4
  br label %16

16:                                               ; preds = %15, %8
  %17 = load float, ptr %2, align 4
  ret float %17
}

; Function Attrs: nounwind uwtable
define internal float @_slider_right_pos(float noundef %0, ptr noundef %1) #0 {
  %3 = alloca float, align 4
  %4 = alloca ptr, align 8
  store float %0, ptr %3, align 4, !tbaa !130
  store ptr %1, ptr %4, align 8, !tbaa !17
  %5 = load ptr, ptr %4, align 8, !tbaa !17
  %6 = call reassoc nsz arcp contract afn float @_widget_get_quad_width(ptr noundef %5)
  %7 = load float, ptr %3, align 4, !tbaa !130
  %8 = fdiv reassoc nsz arcp contract afn float %6, %7
  %9 = fsub reassoc nsz arcp contract afn float 1.000000e+00, %8
  ret float %9
}

; Function Attrs: nounwind uwtable
define internal void @_slider_draw_line(ptr noundef %0, float noundef %1, float noundef %2, float noundef %3, i32 noundef %4, i32 noundef %5, i32 noundef %6, ptr noundef %7) #0 {
  %9 = alloca ptr, align 8
  %10 = alloca float, align 4
  %11 = alloca float, align 4
  %12 = alloca float, align 4
  %13 = alloca i32, align 4
  %14 = alloca i32, align 4
  %15 = alloca i32, align 4
  %16 = alloca ptr, align 8
  %17 = alloca float, align 4
  %18 = alloca i32, align 4
  %19 = alloca i32, align 4
  %20 = alloca float, align 4
  %21 = alloca float, align 4
  store ptr %0, ptr %9, align 8, !tbaa !91
  store float %1, ptr %10, align 4, !tbaa !130
  store float %2, ptr %11, align 4, !tbaa !130
  store float %3, ptr %12, align 4, !tbaa !130
  store i32 %4, ptr %13, align 4, !tbaa !13
  store i32 %5, ptr %14, align 4, !tbaa !13
  store i32 %6, ptr %15, align 4, !tbaa !13
  store ptr %7, ptr %16, align 8, !tbaa !17
  call void @llvm.lifetime.start.p0(i64 4, ptr %17) #13
  %22 = load i32, ptr %13, align 4, !tbaa !13
  %23 = sitofp i32 %22 to float
  %24 = load ptr, ptr %16, align 8, !tbaa !17
  %25 = call reassoc nsz arcp contract afn float @_slider_right_pos(float noundef %23, ptr noundef %24)
  store float %25, ptr %17, align 4, !tbaa !130
  call void @llvm.lifetime.start.p0(i64 4, ptr %18) #13
  store i32 64, ptr %18, align 4, !tbaa !13
  %26 = load ptr, ptr %9, align 8, !tbaa !91
  %27 = load i32, ptr %13, align 4, !tbaa !13
  %28 = sitofp i32 %27 to float
  %29 = load float, ptr %10, align 4, !tbaa !130
  %30 = load float, ptr %11, align 4, !tbaa !130
  %31 = fadd reassoc nsz arcp contract afn float %29, %30
  %32 = fmul reassoc nsz arcp contract afn float %28, %31
  %33 = load float, ptr %17, align 4, !tbaa !130
  %34 = fmul reassoc nsz arcp contract afn float %32, %33
  %35 = fpext reassoc nsz arcp contract afn float %34 to double
  %36 = load i32, ptr %15, align 4, !tbaa !13
  %37 = sitofp i32 %36 to float
  %38 = fmul reassoc nsz arcp contract afn float %37, 0x3FE6666660000000
  %39 = fpext reassoc nsz arcp contract afn float %38 to double
  call void @cairo_move_to(ptr noundef %26, double noundef %35, double noundef %39)
  %40 = load ptr, ptr %9, align 8, !tbaa !91
  %41 = load i32, ptr %13, align 4, !tbaa !13
  %42 = sitofp i32 %41 to float
  %43 = load float, ptr %10, align 4, !tbaa !130
  %44 = load float, ptr %11, align 4, !tbaa !130
  %45 = fadd reassoc nsz arcp contract afn float %43, %44
  %46 = fmul reassoc nsz arcp contract afn float %42, %45
  %47 = load float, ptr %17, align 4, !tbaa !130
  %48 = fmul reassoc nsz arcp contract afn float %46, %47
  %49 = fpext reassoc nsz arcp contract afn float %48 to double
  %50 = load i32, ptr %15, align 4, !tbaa !13
  %51 = sitofp i32 %50 to double
  call void @cairo_line_to(ptr noundef %40, double noundef %49, double noundef %51)
  call void @llvm.lifetime.start.p0(i64 4, ptr %19) #13
  store i32 1, ptr %19, align 4, !tbaa !13
  br label %52

52:                                               ; preds = %96, %8
  %53 = load i32, ptr %19, align 4, !tbaa !13
  %54 = icmp slt i32 %53, 64
  br i1 %54, label %56, label %55

55:                                               ; preds = %52
  call void @llvm.lifetime.end.p0(i64 4, ptr %19) #13
  br label %99

56:                                               ; preds = %52
  call void @llvm.lifetime.start.p0(i64 4, ptr %20) #13
  %57 = load i32, ptr %19, align 4, !tbaa !13
  %58 = sitofp i32 %57 to float
  %59 = fdiv reassoc nsz arcp contract afn float %58, 6.300000e+01
  store float %59, ptr %20, align 4, !tbaa !130
  call void @llvm.lifetime.start.p0(i64 4, ptr %21) #13
  %60 = load float, ptr %20, align 4, !tbaa !130
  %61 = load float, ptr %20, align 4, !tbaa !130
  %62 = fmul reassoc nsz arcp contract afn float %60, %61
  %63 = fmul reassoc nsz arcp contract afn float %62, 5.000000e-01
  %64 = load float, ptr %11, align 4, !tbaa !130
  %65 = load float, ptr %12, align 4, !tbaa !130
  %66 = fdiv reassoc nsz arcp contract afn float %64, %65
  %67 = fadd reassoc nsz arcp contract afn float 1.000000e+00, %66
  %68 = fmul reassoc nsz arcp contract afn float %63, %67
  %69 = load float, ptr %20, align 4, !tbaa !130
  %70 = load float, ptr %20, align 4, !tbaa !130
  %71 = fmul reassoc nsz arcp contract afn float %69, %70
  %72 = fsub reassoc nsz arcp contract afn float 1.000000e+00, %71
  %73 = load float, ptr %10, align 4, !tbaa !130
  %74 = load float, ptr %11, align 4, !tbaa !130
  %75 = fadd reassoc nsz arcp contract afn float %73, %74
  %76 = fmul reassoc nsz arcp contract afn float %72, %75
  %77 = load float, ptr %17, align 4, !tbaa !130
  %78 = fmul reassoc nsz arcp contract afn float %76, %77
  %79 = fadd reassoc nsz arcp contract afn float %68, %78
  store float %79, ptr %21, align 4, !tbaa !130
  %80 = load ptr, ptr %9, align 8, !tbaa !91
  %81 = load float, ptr %21, align 4, !tbaa !130
  %82 = load i32, ptr %13, align 4, !tbaa !13
  %83 = sitofp i32 %82 to float
  %84 = fmul reassoc nsz arcp contract afn float %81, %83
  %85 = fpext reassoc nsz arcp contract afn float %84 to double
  %86 = load i32, ptr %15, align 4, !tbaa !13
  %87 = sitofp i32 %86 to float
  %88 = load float, ptr %20, align 4, !tbaa !130
  %89 = load i32, ptr %14, align 4, !tbaa !13
  %90 = load i32, ptr %15, align 4, !tbaa !13
  %91 = sub nsw i32 %89, %90
  %92 = sitofp i32 %91 to float
  %93 = fmul reassoc nsz arcp contract afn float %88, %92
  %94 = fadd reassoc nsz arcp contract afn float %87, %93
  %95 = fpext reassoc nsz arcp contract afn float %94 to double
  call void @cairo_line_to(ptr noundef %80, double noundef %85, double noundef %95)
  call void @llvm.lifetime.end.p0(i64 4, ptr %21) #13
  call void @llvm.lifetime.end.p0(i64 4, ptr %20) #13
  br label %96

96:                                               ; preds = %56
  %97 = load i32, ptr %19, align 4, !tbaa !13
  %98 = add nsw i32 %97, 1
  store i32 %98, ptr %19, align 4, !tbaa !13
  br label %52

99:                                               ; preds = %55
  call void @llvm.lifetime.end.p0(i64 4, ptr %18) #13
  call void @llvm.lifetime.end.p0(i64 4, ptr %17) #13
  ret void
}