; Function Attrs: nounwind uwtable
define internal fastcc void @_slider_draw_line(ptr noundef %0, float noundef %1, float noundef %2, float noundef %3, i32 noundef %4, i32 noundef %5, i32 noundef %6, i32 %.380.val) unnamed_addr #0 {
  %8 = sitofp i32 %4 to float
  %.not.i.i = icmp eq i32 %.380.val, 0
  br i1 %.not.i.i, label %_slider_right_pos.exit, label %9

9:                                                ; preds = %7
  %10 = load ptr, ptr getelementptr inbounds nuw (i8, ptr @darktable, i64 128), align 8, !tbaa !67
  %11 = getelementptr inbounds nuw i8, ptr %10, i64 328
  %12 = load float, ptr %11, align 8, !tbaa !81
  %13 = fadd reassoc nsz arcp contract afn float %12, 4.000000e+00
  br label %_slider_right_pos.exit

_slider_right_pos.exit:                           ; preds = %7, %9
  %.0.i.i = phi nsz float [ %13, %9 ], [ 0.000000e+00, %7 ]
  %14 = fdiv reassoc nsz arcp contract afn float %.0.i.i, %8
  %15 = fsub reassoc nsz arcp contract afn float 1.000000e+00, %14
  %16 = fadd reassoc nsz arcp contract afn float %2, %1
  %17 = fmul reassoc nsz arcp contract afn float %16, %8
  %18 = fmul reassoc nsz arcp contract afn float %17, %15
  %19 = fpext reassoc nsz arcp contract afn float %18 to double
  %20 = sitofp i32 %6 to float
  %21 = fmul reassoc nsz arcp contract afn float %20, 0x3FE6666660000000
  %22 = fpext reassoc nsz arcp contract afn float %21 to double
  tail call void @cairo_move_to(ptr noundef %0, double noundef %19, double noundef %22) #19
  %23 = sitofp i32 %6 to double
  tail call void @cairo_line_to(ptr noundef %0, double noundef %19, double noundef %23) #19
  %24 = fmul reassoc nsz arcp contract afn float %2, 5.000000e-01
  %25 = fdiv reassoc nsz arcp contract afn float %24, %3
  %26 = fadd reassoc nsz arcp contract afn float %25, 5.000000e-01
  %27 = fmul reassoc nsz arcp contract afn float %15, %16
  %factor.op.fmul = fmul reassoc nsz arcp contract afn float %26, %8
  %factor.op.fmul1 = fmul reassoc nsz arcp contract afn float %27, %8
  %28 = sub nsw i32 %5, %6
  %29 = sitofp i32 %28 to float
  %30 = fsub reassoc nsz arcp contract afn float %factor.op.fmul, %factor.op.fmul1
  br label %32

31:                                               ; preds = %32
  ret void

32:                                               ; preds = %_slider_right_pos.exit, %32
  %.03 = phi i32 [ 1, %_slider_right_pos.exit ], [ %42, %32 ]
  %33 = uitofp nneg i32 %.03 to float
  %34 = fmul reassoc nsz arcp contract afn float %33, 0x3F90410420000000
  %35 = fmul reassoc nsz arcp contract afn float %34, %34
  %36 = fmul reassoc nsz arcp contract afn float %35, %30
  %37 = fadd reassoc nsz arcp contract afn float %factor.op.fmul1, %36
  %38 = fpext reassoc nsz arcp contract afn float %37 to double
  %39 = fmul reassoc nsz arcp contract afn float %34, %29
  %40 = fadd reassoc nsz arcp contract afn float %39, %20
  %41 = fpext reassoc nsz arcp contract afn float %40 to double
  tail call void @cairo_line_to(ptr noundef %0, double noundef %38, double noundef %41) #19
  %42 = add nuw nsw i32 %.03, 1
  %exitcond.not = icmp eq i32 %42, 64
  br i1 %exitcond.not, label %31, label %32
}